(lp1
F1.6859999999999999
aF0.70199999999999996
aF0.27400000000000002
aF0.72499999999999998
aF-1
aF0.0458
aF8.6000000000000003e-05
aF0
aF0
aF0.086999999999999994
aF10.4
aF70.199999999999989
aF0.95999999999999996
a.